; Function Attrs: mustprogress uwtable
define internal noundef nonnull ptr @_ZNK7testing8internal26CartesianProductGenerator3IN2cv5Size_IiEES4_N11opencv_test12_GLOBAL__N_110MethodTypeEE3EndEv(ptr noundef nonnull align 8 dereferenceable(56) %0) unnamed_addr #4 align 2 personality ptr @__gxx_personality_v0 {
  %2 = alloca %"class.testing::internal::ParamIterator", align 8
  %3 = alloca %"class.testing::internal::ParamIterator", align 8
  %4 = alloca %"class.testing::internal::ParamIterator.64", align 8
  %5 = tail call noalias noundef nonnull dereferenceable(104) ptr @_Znwm(i64 noundef 104) #31
  %6 = getelementptr inbounds nuw i8, ptr %0, i64 8
  call void @llvm.lifetime.start.p0(i64 8, ptr nonnull %2) #30
  tail call void @llvm.experimental.noalias.scope.decl(metadata !261)
  %7 = load ptr, ptr %6, align 8, !tbaa !116, !noalias !261
  %8 = load ptr, ptr %7, align 8, !tbaa !19, !noalias !261
  %9 = getelementptr inbounds nuw i8, ptr %8, i64 24
  %10 = load ptr, ptr %9, align 8, !noalias !261
  %11 = invoke noundef ptr %10(ptr noundef nonnull align 8 dereferenceable(8) %7)
          to label %12 unwind label %54

12:                                               ; preds = %1
  store ptr %11, ptr %2, align 8, !tbaa !249, !alias.scope !261
  %13 = getelementptr inbounds nuw i8, ptr %0, i64 24
  call void @llvm.lifetime.start.p0(i64 8, ptr nonnull %3) #30
  tail call void @llvm.experimental.noalias.scope.decl(metadata !264)
  %14 = load ptr, ptr %13, align 8, !tbaa !116, !noalias !264
  %15 = load ptr, ptr %14, align 8, !tbaa !19, !noalias !264
  %16 = getelementptr inbounds nuw i8, ptr %15, i64 24
  %17 = load ptr, ptr %16, align 8, !noalias !264
  %18 = invoke noundef ptr %17(ptr noundef nonnull align 8 dereferenceable(8) %14)
          to label %19 unwind label %56

19:                                               ; preds = %12
  store ptr %18, ptr %3, align 8, !tbaa !249, !alias.scope !264
  %20 = getelementptr inbounds nuw i8, ptr %0, i64 40
  call void @llvm.lifetime.start.p0(i64 8, ptr nonnull %4) #30
  %.val = load ptr, ptr %20, align 8, !tbaa !91
  tail call void @llvm.experimental.noalias.scope.decl(metadata !267)
  %21 = load ptr, ptr %.val, align 8, !tbaa !19, !noalias !267
  %22 = getelementptr inbounds nuw i8, ptr %21, i64 24
  %23 = load ptr, ptr %22, align 8, !noalias !267
  %24 = invoke noundef ptr %23(ptr noundef nonnull align 8 dereferenceable(8) %.val)
          to label %25 unwind label %58

25:                                               ; preds = %19
  store ptr %24, ptr %4, align 8, !tbaa !258, !alias.scope !267
  invoke fastcc void @_ZN7testing8internal26CartesianProductGenerator3IN2cv5Size_IiEES4_N11opencv_test12_GLOBAL__N_110MethodTypeEE8IteratorC2EPKNS0_23ParamGeneratorInterfaceISt5tupleIJS4_S4_S7_EEEERKNS0_14ParamGeneratorIS4_EERKNS0_13ParamIteratorIS4_EESJ_SN_RKNSG_IS7_EERKNSK_IS7_EE(ptr noundef nonnull align 8 dereferenceable(104) %5, ptr noundef %0, ptr noundef nonnull align 8 dereferenceable(16) %6, ptr noundef nonnull align 8 dereferenceable(8) %2, ptr noundef nonnull align 8 dereferenceable(16) %13, ptr noundef nonnull align 8 dereferenceable(8) %3, ptr noundef nonnull align 8 dereferenceable(16) %20, ptr %24)
          to label %26 unwind label %60

26:                                               ; preds = %25
  %.not.i.i.i = icmp eq ptr %24, null
  br i1 %.not.i.i.i, label %_ZN7testing8internal13ParamIteratorIN11opencv_test12_GLOBAL__N_110MethodTypeEED2Ev.exit, label %27

27:                                               ; preds = %26
  %28 = invoke noundef zeroext i1 @_ZN7testing8internal6IsTrueEb(i1 noundef zeroext true)
          to label %.noexc.i.i unwind label %33

.noexc.i.i:                                       ; preds = %27
  br i1 %28, label %29, label %_ZN7testing8internal13ParamIteratorIN11opencv_test12_GLOBAL__N_110MethodTypeEED2Ev.exit

29:                                               ; preds = %.noexc.i.i
  %30 = load ptr, ptr %24, align 8, !tbaa !19
  %31 = getelementptr inbounds nuw i8, ptr %30, i64 8
  %32 = load ptr, ptr %31, align 8
  tail call void %32(ptr noundef nonnull align 8 dereferenceable(8) %24) #30
  br label %_ZN7testing8internal13ParamIteratorIN11opencv_test12_GLOBAL__N_110MethodTypeEED2Ev.exit

33:                                               ; preds = %27
  %34 = landingpad { ptr, i32 }
          catch ptr null
  %35 = extractvalue { ptr, i32 } %34, 0
  tail call void @__clang_call_terminate(ptr %35) #33
  unreachable

_ZN7testing8internal13ParamIteratorIN11opencv_test12_GLOBAL__N_110MethodTypeEED2Ev.exit: ; preds = %.noexc.i.i, %29, %26
  call void @llvm.lifetime.end.p0(i64 8, ptr nonnull %4) #30
  %.not.i.i.i11 = icmp eq ptr %18, null
  br i1 %.not.i.i.i11, label %_ZN7testing8internal13ParamIteratorIN2cv5Size_IiEEED2Ev.exit, label %36

36:                                               ; preds = %_ZN7testing8internal13ParamIteratorIN11opencv_test12_GLOBAL__N_110MethodTypeEED2Ev.exit
  %37 = invoke noundef zeroext i1 @_ZN7testing8internal6IsTrueEb(i1 noundef zeroext true)
          to label %.noexc.i.i12 unwind label %42

.noexc.i.i12:                                     ; preds = %36
  br i1 %37, label %38, label %_ZN7testing8internal13ParamIteratorIN2cv5Size_IiEEED2Ev.exit

38:                                               ; preds = %.noexc.i.i12
  %39 = load ptr, ptr %18, align 8, !tbaa !19
  %40 = getelementptr inbounds nuw i8, ptr %39, i64 8
  %41 = load ptr, ptr %40, align 8
  tail call void %41(ptr noundef nonnull align 8 dereferenceable(8) %18) #30
  br label %_ZN7testing8internal13ParamIteratorIN2cv5Size_IiEEED2Ev.exit

42:                                               ; preds = %36
  %43 = landingpad { ptr, i32 }
          catch ptr null
  %44 = extractvalue { ptr, i32 } %43, 0
  tail call void @__clang_call_terminate(ptr %44) #33
  unreachable

_ZN7testing8internal13ParamIteratorIN2cv5Size_IiEEED2Ev.exit: ; preds = %.noexc.i.i12, %38, %_ZN7testing8internal13ParamIteratorIN11opencv_test12_GLOBAL__N_110MethodTypeEED2Ev.exit
  call void @llvm.lifetime.end.p0(i64 8, ptr nonnull %3) #30
  %.not.i.i.i13 = icmp eq ptr %11, null
  br i1 %.not.i.i.i13, label %_ZN7testing8internal13ParamIteratorIN2cv5Size_IiEEED2Ev.exit15, label %45

45:                                               ; preds = %_ZN7testing8internal13ParamIteratorIN2cv5Size_IiEEED2Ev.exit
  %46 = invoke noundef zeroext i1 @_ZN7testing8internal6IsTrueEb(i1 noundef zeroext true)
          to label %.noexc.i.i14 unwind label %51

.noexc.i.i14:                                     ; preds = %45
  br i1 %46, label %47, label %_ZN7testing8internal13ParamIteratorIN2cv5Size_IiEEED2Ev.exit15

47:                                               ; preds = %.noexc.i.i14
  %48 = load ptr, ptr %11, align 8, !tbaa !19
  %49 = getelementptr inbounds nuw i8, ptr %48, i64 8
  %50 = load ptr, ptr %49, align 8
  tail call void %50(ptr noundef nonnull align 8 dereferenceable(8) %11) #30
  br label %_ZN7testing8internal13ParamIteratorIN2cv5Size_IiEEED2Ev.exit15

51:                                               ; preds = %45
  %52 = landingpad { ptr, i32 }
          catch ptr null
  %53 = extractvalue { ptr, i32 } %52, 0
  tail call void @__clang_call_terminate(ptr %53) #33
  unreachable

_ZN7testing8internal13ParamIteratorIN2cv5Size_IiEEED2Ev.exit15: ; preds = %.noexc.i.i14, %47, %_ZN7testing8internal13ParamIteratorIN2cv5Size_IiEEED2Ev.exit
  call void @llvm.lifetime.end.p0(i64 8, ptr nonnull %2) #30
  ret ptr %5

54:                                               ; preds = %1
  %55 = landingpad { ptr, i32 }
          cleanup
  br label %64

56:                                               ; preds = %12
  %57 = landingpad { ptr, i32 }
          cleanup
  br label %63

58:                                               ; preds = %19
  %59 = landingpad { ptr, i32 }
          cleanup
  br label %62

60:                                               ; preds = %25
  %61 = landingpad { ptr, i32 }
          cleanup
  call fastcc void @_ZN7testing8internal13ParamIteratorIN11opencv_test12_GLOBAL__N_110MethodTypeEED2Ev(ptr noundef nonnull align 8 dereferenceable(8) %4) #30
  br label %62

62:                                               ; preds = %60, %58
  %.pn = phi { ptr, i32 } [ %61, %60 ], [ %59, %58 ]
  call void @llvm.lifetime.end.p0(i64 8, ptr nonnull %4) #30
  call void @_ZN7testing8internal13ParamIteratorIN2cv5Size_IiEEED2Ev(ptr noundef nonnull align 8 dereferenceable(8) %3) #30
  br label %63

63:                                               ; preds = %62, %56
  %.pn.pn = phi { ptr, i32 } [ %.pn, %62 ], [ %57, %56 ]
  call void @llvm.lifetime.end.p0(i64 8, ptr nonnull %3) #30
  call void @_ZN7testing8internal13ParamIteratorIN2cv5Size_IiEEED2Ev(ptr noundef nonnull align 8 dereferenceable(8) %2) #30
  br label %64

64:                                               ; preds = %63, %54
  %.pn.pn.pn = phi { ptr, i32 } [ %.pn.pn, %63 ], [ %55, %54 ]
  call void @llvm.lifetime.end.p0(i64 8, ptr nonnull %2) #30
  call void @_ZdlPv(ptr noundef nonnull %5) #32
  resume { ptr, i32 } %.pn.pn.pn
}